target datalayout = "e-m:e-p270:32:32-p271:32:32-p272:64:64-i64:64-i128:128-f80:128-n8:16:32:64-S128"
target triple = "x86_64-pc-linux-gnu"

%struct.KINMemRec = type { ptr, double, ptr, ptr, double, double, i32, i64, i64, i64, i64, i32, i32, i32, i32, i32, i32, i32, i32, double, double, double, double, double, double, double, double, double, i32, double, i64, i64, i64, i64, i64, i64, i64, ptr, ptr, ptr, ptr, ptr, ptr, ptr, ptr, ptr, ptr, ptr, i32, i32, double, ptr, ptr, ptr, ptr, ptr, double, ptr, ptr, ptr, ptr, i64, i64, i32, ptr, ptr, i32, ptr, ptr, i64, i64, i64, i64, ptr, ptr, ptr, ptr, i32, ptr, double, double, double, double, double, i32, double, double, double, i32 }

@.str = private unnamed_addr constant [118 x i8] c"generated/home/dtcxzyw/WorkSpace/Projects/compilers/llvm-opt-benchmark/bench/sundials/sundials/src/kinsol/kinsol_io.c\00", align 1
@.str.1 = private unnamed_addr constant [27 x i8] c"kinsol_mem = NULL illegal.\00", align 1
@__func__.KINSetConstraints = private unnamed_addr constant [18 x i8] c"KINSetConstraints\00", align 1
@.str.19 = private unnamed_addr constant [38 x i8] c"Illegal values in constraints vector.\00", align 1

; Function Attrs: nounwind uwtable
define i32 @KINSetConstraints(ptr noundef %0, ptr noundef %1) #0 {
  %3 = alloca i32, align 4
  %4 = alloca ptr, align 8
  %5 = alloca ptr, align 8
  %6 = alloca ptr, align 8
  %7 = alloca double, align 8
  %8 = alloca i32, align 4
  store ptr %0, ptr %4, align 8, !tbaa !3
  store ptr %1, ptr %5, align 8, !tbaa !50
  call void @llvm.lifetime.start.p0(i64 8, ptr %6) #5
  call void @llvm.lifetime.start.p0(i64 8, ptr %7) #5
  %9 = load ptr, ptr %4, align 8, !tbaa !3
  %10 = icmp eq ptr %9, null
  br i1 %10, label %11, label %12

11:                                               ; preds = %2
  call void (ptr, i32, i32, ptr, ptr, ptr, ...) @KINProcessError(ptr noundef null, i32 noundef -1, i32 noundef 815, ptr noundef @__func__.KINSetConstraints, ptr noundef @.str, ptr noundef @.str.1)
  store i32 -1, ptr %3, align 4
  store i32 1, ptr %8, align 4
  br label %80

12:                                               ; preds = %2
  %13 = load ptr, ptr %4, align 8, !tbaa !3
  store ptr %13, ptr %6, align 8, !tbaa !7
  %14 = load ptr, ptr %5, align 8, !tbaa !50
  %15 = icmp eq ptr %14, null
  br i1 %15, label %16, label %42

16:                                               ; preds = %12
  %17 = load ptr, ptr %6, align 8, !tbaa !7
  %18 = getelementptr inbounds nuw %struct.KINMemRec, ptr %17, i32 0, i32 13
  %19 = load i32, ptr %18, align 8, !tbaa !51
  %20 = icmp ne i32 %19, 0
  br i1 %20, label %21, label %39

21:                                               ; preds = %16
  %22 = load ptr, ptr %6, align 8, !tbaa !7
  %23 = getelementptr inbounds nuw %struct.KINMemRec, ptr %22, i32 0, i32 44
  %24 = load ptr, ptr %23, align 8, !tbaa !52
  call void @N_VDestroy(ptr noundef %24)
  %25 = load ptr, ptr %6, align 8, !tbaa !7
  %26 = getelementptr inbounds nuw %struct.KINMemRec, ptr %25, i32 0, i32 69
  %27 = load i64, ptr %26, align 8, !tbaa !53
  %28 = load ptr, ptr %6, align 8, !tbaa !7
  %29 = getelementptr inbounds nuw %struct.KINMemRec, ptr %28, i32 0, i32 71
  %30 = load i64, ptr %29, align 8, !tbaa !54
  %31 = sub nsw i64 %30, %27
  store i64 %31, ptr %29, align 8, !tbaa !54
  %32 = load ptr, ptr %6, align 8, !tbaa !7
  %33 = getelementptr inbounds nuw %struct.KINMemRec, ptr %32, i32 0, i32 70
  %34 = load i64, ptr %33, align 8, !tbaa !55
  %35 = load ptr, ptr %6, align 8, !tbaa !7
  %36 = getelementptr inbounds nuw %struct.KINMemRec, ptr %35, i32 0, i32 72
  %37 = load i64, ptr %36, align 8, !tbaa !56
  %38 = sub nsw i64 %37, %34
  store i64 %38, ptr %36, align 8, !tbaa !56
  br label %39

39:                                               ; preds = %21, %16
  %40 = load ptr, ptr %6, align 8, !tbaa !7
  %41 = getelementptr inbounds nuw %struct.KINMemRec, ptr %40, i32 0, i32 13
  store i32 0, ptr %41, align 8, !tbaa !51
  store i32 0, ptr %3, align 4
  store i32 1, ptr %8, align 4
  br label %80

42:                                               ; preds = %12
  %43 = load ptr, ptr %5, align 8, !tbaa !50
  %44 = call double @N_VMaxNorm(ptr noundef %43)
  store double %44, ptr %7, align 8, !tbaa !20
  %45 = load double, ptr %7, align 8, !tbaa !20
  %46 = fcmp ogt double %45, 2.500000e+00
  br i1 %46, label %47, label %49

47:                                               ; preds = %42
  %48 = load ptr, ptr %6, align 8, !tbaa !7
  call void (ptr, i32, i32, ptr, ptr, ptr, ...) @KINProcessError(ptr noundef %48, i32 noundef -2, i32 noundef 838, ptr noundef @__func__.KINSetConstraints, ptr noundef @.str, ptr noundef @.str.19)
  store i32 -2, ptr %3, align 4
  store i32 1, ptr %8, align 4
  br label %80

49:                                               ; preds = %42
  %50 = load ptr, ptr %6, align 8, !tbaa !7
  %51 = getelementptr inbounds nuw %struct.KINMemRec, ptr %50, i32 0, i32 13
  %52 = load i32, ptr %51, align 8, !tbaa !51
  %53 = icmp ne i32 %52, 0
  br i1 %53, label %75, label %54

54:                                               ; preds = %49
  %55 = load ptr, ptr %5, align 8, !tbaa !50
  %56 = call ptr @N_VClone(ptr noundef %55)
  %57 = load ptr, ptr %6, align 8, !tbaa !7
  %58 = getelementptr inbounds nuw %struct.KINMemRec, ptr %57, i32 0, i32 44
  store ptr %56, ptr %58, align 8, !tbaa !52
  %59 = load ptr, ptr %6, align 8, !tbaa !7
  %60 = getelementptr inbounds nuw %struct.KINMemRec, ptr %59, i32 0, i32 69
  %61 = load i64, ptr %60, align 8, !tbaa !53
  %62 = load ptr, ptr %6, align 8, !tbaa !7
  %63 = getelementptr inbounds nuw %struct.KINMemRec, ptr %62, i32 0, i32 71
  %64 = load i64, ptr %63, align 8, !tbaa !54
  %65 = add nsw i64 %64, %61
  store i64 %65, ptr %63, align 8, !tbaa !54
  %66 = load ptr, ptr %6, align 8, !tbaa !7
  %67 = getelementptr inbounds nuw %struct.KINMemRec, ptr %66, i32 0, i32 70
  %68 = load i64, ptr %67, align 8, !tbaa !55
  %69 = load ptr, ptr %6, align 8, !tbaa !7
  %70 = getelementptr inbounds nuw %struct.KINMemRec, ptr %69, i32 0, i32 72
  %71 = load i64, ptr %70, align 8, !tbaa !56
  %72 = add nsw i64 %71, %68
  store i64 %72, ptr %70, align 8, !tbaa !56
  %73 = load ptr, ptr %6, align 8, !tbaa !7
  %74 = getelementptr inbounds nuw %struct.KINMemRec, ptr %73, i32 0, i32 13
  store i32 1, ptr %74, align 8, !tbaa !51
  br label %75

75:                                               ; preds = %54, %49
  %76 = load ptr, ptr %5, align 8, !tbaa !50
  %77 = load ptr, ptr %6, align 8, !tbaa !7
  %78 = getelementptr inbounds nuw %struct.KINMemRec, ptr %77, i32 0, i32 44
  %79 = load ptr, ptr %78, align 8, !tbaa !52
  call void @N_VScale(double noundef 1.000000e+00, ptr noundef %76, ptr noundef %79)
  store i32 0, ptr %3, align 4
  store i32 1, ptr %8, align 4
  br label %80

80:                                               ; preds = %75, %47, %39, %11
  call void @llvm.lifetime.end.p0(i64 8, ptr %7) #5
  call void @llvm.lifetime.end.p0(i64 8, ptr %6) #5
  %81 = load i32, ptr %3, align 4
  ret i32 %81
}