; Function Attrs: nounwind uwtable
define range(i32 -2, 1) i32 @KINSetConstraints(ptr noundef %0, ptr noundef %1) local_unnamed_addr #0 {
  %3 = icmp eq ptr %0, null
  br i1 %3, label %4, label %5

4:                                                ; preds = %2
  tail call void (ptr, i32, i32, ptr, ptr, ptr, ...) @KINProcessError(ptr noundef null, i32 noundef -1, i32 noundef 815, ptr noundef nonnull @__func__.KINSetConstraints, ptr noundef nonnull @.str, ptr noundef nonnull @.str.1) #9
  br label %46

5:                                                ; preds = %2
  %6 = icmp eq ptr %1, null
  br i1 %6, label %7, label %24

7:                                                ; preds = %5
  %8 = getelementptr inbounds nuw i8, ptr %0, i64 96
  %9 = load i32, ptr %8, align 8, !tbaa !45
  %.not25 = icmp eq i32 %9, 0
  br i1 %.not25, label %23, label %10

10:                                               ; preds = %7
  %11 = getelementptr inbounds nuw i8, ptr %0, i64 320
  %12 = load ptr, ptr %11, align 8, !tbaa !46
  tail call void @N_VDestroy(ptr noundef %12) #9
  %13 = getelementptr inbounds nuw i8, ptr %0, i64 512
  %14 = load i64, ptr %13, align 8, !tbaa !47
  %15 = getelementptr inbounds nuw i8, ptr %0, i64 528
  %16 = load i64, ptr %15, align 8, !tbaa !48
  %17 = sub nsw i64 %16, %14
  store i64 %17, ptr %15, align 8, !tbaa !48
  %18 = getelementptr inbounds nuw i8, ptr %0, i64 520
  %19 = load i64, ptr %18, align 8, !tbaa !49
  %20 = getelementptr inbounds nuw i8, ptr %0, i64 536
  %21 = load i64, ptr %20, align 8, !tbaa !50
  %22 = sub nsw i64 %21, %19
  store i64 %22, ptr %20, align 8, !tbaa !50
  br label %23

23:                                               ; preds = %10, %7
  store i32 0, ptr %8, align 8, !tbaa !45
  br label %46

24:                                               ; preds = %5
  %25 = tail call double @N_VMaxNorm(ptr noundef nonnull %1) #9
  %26 = fcmp ogt double %25, 2.500000e+00
  br i1 %26, label %27, label %28

27:                                               ; preds = %24
  tail call void (ptr, i32, i32, ptr, ptr, ptr, ...) @KINProcessError(ptr noundef nonnull %0, i32 noundef -2, i32 noundef 838, ptr noundef nonnull @__func__.KINSetConstraints, ptr noundef nonnull @.str, ptr noundef nonnull @.str.19) #9
  br label %46

28:                                               ; preds = %24
  %29 = getelementptr inbounds nuw i8, ptr %0, i64 96
  %30 = load i32, ptr %29, align 8, !tbaa !45
  %.not = icmp eq i32 %30, 0
  br i1 %.not, label %31, label %._crit_edge

._crit_edge:                                      ; preds = %28
  %.phi.trans.insert = getelementptr inbounds nuw i8, ptr %0, i64 320
  %.pre = load ptr, ptr %.phi.trans.insert, align 8, !tbaa !46
  br label %44

31:                                               ; preds = %28
  %32 = tail call ptr @N_VClone(ptr noundef nonnull %1) #9
  %33 = getelementptr inbounds nuw i8, ptr %0, i64 320
  store ptr %32, ptr %33, align 8, !tbaa !46
  %34 = getelementptr inbounds nuw i8, ptr %0, i64 512
  %35 = load i64, ptr %34, align 8, !tbaa !47
  %36 = getelementptr inbounds nuw i8, ptr %0, i64 528
  %37 = load i64, ptr %36, align 8, !tbaa !48
  %38 = add nsw i64 %37, %35
  store i64 %38, ptr %36, align 8, !tbaa !48
  %39 = getelementptr inbounds nuw i8, ptr %0, i64 520
  %40 = load i64, ptr %39, align 8, !tbaa !49
  %41 = getelementptr inbounds nuw i8, ptr %0, i64 536
  %42 = load i64, ptr %41, align 8, !tbaa !50
  %43 = add nsw i64 %42, %40
  store i64 %43, ptr %41, align 8, !tbaa !50
  store i32 1, ptr %29, align 8, !tbaa !45
  br label %44

44:                                               ; preds = %._crit_edge, %31
  %45 = phi ptr [ %.pre, %._crit_edge ], [ %32, %31 ]
  tail call void @N_VScale(double noundef 1.000000e+00, ptr noundef nonnull %1, ptr noundef %45) #9
  br label %46

46:                                               ; preds = %44, %27, %23, %4
  %.0 = phi i32 [ -1, %4 ], [ 0, %23 ], [ -2, %27 ], [ 0, %44 ]
  ret i32 %.0
}